ccopy_reg
_reconstructor
p0
(cobj.player
Player
p1
c__builtin__
object
p2
Ntp3
Rp4
(dp5
S'bestFriend'
p6
(dp7
S'version'
p8
S'v0.1'
p9
sS'fid'
p10
I98
sS'show'
p11
(lp12
I983319
aI874953
aI378840
aI347655
aI142873
aI944793
aI972576
aI668745
aI211913
aI486037
assS'name'
p13
S'cong tou'
p14
sS'level'
p15
I3
sS'skills'
p16
(lp17
(dp18
S'1001'
p19
V\u666e\u901a\u653b\u51fb
p20
sa(dp21
S'1002'
p22
V\u6218\u6280
p23
sa(dp24
S'1003'
p25
V\u5927\u62db
p26
sasS'friends'
p27
(lp28
(dp29
g8
g9
sg10
I80
sg11
(lp30
I324266
aI770171
aI645300
aI970712
aI98564
aI389106
aI176241
aI983501
aI946570
aI135392
asa(dp31
g8
g9
sg10
I62
sg11
(lp32
I402607
aI994761
aI668539
aI309857
aI121839
aI765547
aI502186
aI224509
aI380706
aI706540
asa(dp33
g8
g9
sg10
I24
sg11
(lp34
I52675
aI513466
aI373660
aI817902
aI322104
aI382659
aI37973
aI738316
aI817032
aI452425
asasS'is_active'
p35
I01
sS'equipment'
p36
(lp37
I79624
aI791634
aI262983
asg8
S'v0.1'
p38
sS'health'
p39
F13.14
sS'bag'
p40
(dp41
S'10001'
p42
I10
sS'10002'
p43
I0
sS'10003'
p44
I100
ssS'position'
p45
(I0
I0
I0
tp46
sS'data'
p47
(lp48
I262983
aI791634
aI79624
asS'dataMap'
p49
(dp50
I0
(lp51
I67
aI63
aI52
aI44
aI55
aI80
aI72
aI29
aI82
aI96
aI24
aI53
aI91
aI33
aI84
aI43
aI95
aI39
aI70
aI57
aI68
aI20
aI84
aI34
aI83
aI86
aI64
aI34
aI56
aI23
aI90
aI29
aI19
aI77
aI43
aI28
aI14
aI32
aI87
aI48
aI81
aI82
aI16
aI11
aI37
aI24
aI93
aI21
aI59
aI42
aI15
aI58
aI14
aI81
aI11
aI36
aI98
aI12
aI54
aI51
aI78
aI22
aI34
aI16
aI16
aI45
aI92
aI13
aI16
aI70
aI90
aI26
aI89
aI46
aI29
aI28
aI65
aI17
aI40
aI10
aI44
aI52
aI24
aI69
aI80
aI77
aI71
asI1
(lp52
I26
aI59
aI25
aI85
aI52
aI43
aI70
aI48
aI70
aI41
aI34
aI87
aI15
aI59
aI95
aI46
aI46
aI25
aI61
aI57
aI33
aI69
aI24
aI56
aI89
aI97
aI96
aI56
aI97
aI32
aI19
aI40
aI82
aI93
aI93
aI72
aI71
aI74
aI100
aI100
aI61
aI11
aI29
aI72
aI15
aI75
aI51
aI87
aI48
aI10
aI41
aI48
aI31
aI81
aI48
aI29
aI28
aI97
aI90
aI46
aI73
aI50
aI17
aI28
asI2
(lp53
I72
aI78
aI68
aI32
aI94
aI95
aI35
aI13
aI95
aI65
aI35
aI35
aI90
aI73
aI99
aI42
aI78
aI69
aI45
aI30
aI21
aI72
aI20
aI19
aI97
aI16
aI100
aI91
aI57
aI58
aI83
aI50
aI72
aI55
aI52
aI62
aI43
aI30
aI89
aI54
aI96
aI69
aI72
aI76
aI10
aI50
aI76
aI71
aI15
aI37
aI77
aI48
aI60
aI98
aI90
aI32
aI70
aI66
aI35
aI74
aI40
aI74
aI39
aI60
aI39
aI12
aI27
aI22
aI75
aI49
aI60
aI80
aI71
aI82
aI44
aI45
aI37
aI85
aI89
aI19
aI87
aI32
aI100
aI72
aI94
aI24
aI84
aI74
aI26
aI92
aI94
aI83
aI61
aI28
aI41
aI56
aI56
assb.